target datalayout = "e-m:e-p270:32:32-p271:32:32-p272:64:64-i64:64-i128:128-f80:128-n8:16:32:64-S128"
target triple = "x86_64-pc-linux-gnu"

%struct._zval_struct = type { %union._zend_value, %union.anon.3, %union.anon.6 }
%union._zend_value = type { i64 }
%union.anon.3 = type { i32 }
%union.anon.6 = type { i32 }
%struct._zend_array = type { %struct._zend_refcounted_h, %union.anon.0, i32, %union.anon.1, i32, i32, i32, i32, i64, ptr }
%struct._zend_refcounted_h = type { i32, %union.anon }
%union.anon = type { i32 }
%union.anon.0 = type { i32 }
%union.anon.1 = type { ptr }
%struct._spl_SplObjectStorage = type { %struct._zend_array, i64, i32, i64, ptr, %struct._zend_object }
%struct._zend_object = type { %struct._zend_refcounted_h, i32, ptr, ptr, ptr, [1 x %struct._zval_struct] }
%struct._spl_SplObjectStorageElement = type { ptr, %struct._zval_struct }
%struct._zend_refcounted = type { %struct._zend_refcounted_h }

; Function Attrs: nounwind uwtable
define internal ptr @spl_object_storage_create_element(ptr noundef %0, ptr noundef %1) #0 {
  %3 = alloca ptr, align 8
  %4 = alloca ptr, align 8
  %5 = alloca ptr, align 8
  %6 = alloca ptr, align 8
  %7 = alloca ptr, align 8
  %8 = alloca ptr, align 8
  %9 = alloca ptr, align 8
  %10 = alloca ptr, align 8
  %11 = alloca i32, align 4
  store ptr %0, ptr %5, align 8
  store ptr %1, ptr %6, align 8
  %12 = call noalias ptr @_emalloc_24()
  store ptr %12, ptr %7, align 8
  %13 = load ptr, ptr %5, align 8
  %14 = load ptr, ptr %7, align 8
  %15 = getelementptr inbounds %struct._spl_SplObjectStorageElement, ptr %14, i32 0, i32 0
  store ptr %13, ptr %15, align 8
  %16 = load ptr, ptr %5, align 8
  %17 = getelementptr inbounds %struct._zend_object, ptr %16, i32 0, i32 0
  store ptr %17, ptr %3, align 8
  %18 = load ptr, ptr %3, align 8
  %19 = load i32, ptr %18, align 4
  %20 = add i32 %19, 1
  store i32 %20, ptr %18, align 4
  %21 = load ptr, ptr %6, align 8
  %22 = icmp ne ptr %21, null
  br i1 %22, label %23, label %53

23:                                               ; preds = %2
  br label %24

24:                                               ; preds = %23
  %25 = load ptr, ptr %7, align 8
  %26 = getelementptr inbounds %struct._spl_SplObjectStorageElement, ptr %25, i32 0, i32 1
  store ptr %26, ptr %8, align 8
  %27 = load ptr, ptr %6, align 8
  store ptr %27, ptr %9, align 8
  %28 = load ptr, ptr %9, align 8
  %29 = getelementptr inbounds %struct._zval_struct, ptr %28, i32 0, i32 0
  %30 = load ptr, ptr %29, align 8
  store ptr %30, ptr %10, align 8
  %31 = load ptr, ptr %9, align 8
  %32 = getelementptr inbounds %struct._zval_struct, ptr %31, i32 0, i32 1
  %33 = load i32, ptr %32, align 8
  store i32 %33, ptr %11, align 4
  br label %34

34:                                               ; preds = %24
  %35 = load ptr, ptr %10, align 8
  %36 = load ptr, ptr %8, align 8
  %37 = getelementptr inbounds %struct._zval_struct, ptr %36, i32 0, i32 0
  store ptr %35, ptr %37, align 8
  %38 = load i32, ptr %11, align 4
  %39 = load ptr, ptr %8, align 8
  %40 = getelementptr inbounds %struct._zval_struct, ptr %39, i32 0, i32 1
  store i32 %38, ptr %40, align 8
  br label %41

41:                                               ; preds = %34
  %42 = load i32, ptr %11, align 4
  %43 = and i32 %42, 65280
  %44 = icmp ne i32 %43, 0
  br i1 %44, label %45, label %51

45:                                               ; preds = %41
  %46 = load ptr, ptr %10, align 8
  %47 = getelementptr inbounds %struct._zend_refcounted, ptr %46, i32 0, i32 0
  store ptr %47, ptr %4, align 8
  %48 = load ptr, ptr %4, align 8
  %49 = load i32, ptr %48, align 4
  %50 = add i32 %49, 1
  store i32 %50, ptr %48, align 4
  br label %51

51:                                               ; preds = %45, %41
  br label %52

52:                                               ; preds = %51
  br label %59

53:                                               ; preds = %2
  br label %54

54:                                               ; preds = %53
  %55 = load ptr, ptr %7, align 8
  %56 = getelementptr inbounds %struct._spl_SplObjectStorageElement, ptr %55, i32 0, i32 1
  %57 = getelementptr inbounds %struct._zval_struct, ptr %56, i32 0, i32 1
  store i32 1, ptr %57, align 8
  br label %58

58:                                               ; preds = %54
  br label %59

59:                                               ; preds = %58, %52
  %60 = load ptr, ptr %7, align 8
  ret ptr %60
}

; Function Attrs: nounwind uwtable
define internal ptr @spl_object_storage_attach_handle(ptr noundef %0, ptr noundef %1, ptr noundef %2) #0 {
  %4 = alloca ptr, align 8
  %5 = alloca ptr, align 8
  %6 = alloca ptr, align 8
  %7 = alloca ptr, align 8
  %8 = alloca ptr, align 8
  %9 = alloca ptr, align 8
  %10 = alloca i32, align 4
  %11 = alloca ptr, align 8
  %12 = alloca ptr, align 8
  %13 = alloca %struct._zval_struct, align 8
  %14 = alloca ptr, align 8
  %15 = alloca ptr, align 8
  %16 = alloca ptr, align 8
  %17 = alloca i32, align 4
  %18 = alloca ptr, align 8
  %19 = alloca ptr, align 8
  %20 = alloca ptr, align 8
  %21 = alloca i32, align 4
  store ptr %0, ptr %7, align 8
  store ptr %1, ptr %8, align 8
  store ptr %2, ptr %9, align 8
  %22 = load ptr, ptr %8, align 8
  %23 = getelementptr inbounds %struct._zend_object, ptr %22, i32 0, i32 1
  %24 = load i32, ptr %23, align 8
  store i32 %24, ptr %10, align 4
  %25 = load ptr, ptr %7, align 8
  %26 = getelementptr inbounds %struct._spl_SplObjectStorage, ptr %25, i32 0, i32 0
  %27 = load i32, ptr %10, align 4
  %28 = zext i32 %27 to i64
  %29 = call ptr @zend_hash_index_lookup(ptr noundef %26, i64 noundef %28)
  store ptr %29, ptr %11, align 8
  %30 = load ptr, ptr %7, align 8
  %31 = getelementptr inbounds %struct._spl_SplObjectStorage, ptr %30, i32 0, i32 3
  %32 = load i64, ptr %31, align 8
  %33 = and i64 %32, 2
  %34 = icmp ne i64 %33, 0
  %35 = xor i1 %34, true
  call void @llvm.assume(i1 %35)
  %36 = load ptr, ptr %11, align 8
  store ptr %36, ptr %5, align 8
  %37 = load ptr, ptr %5, align 8
  %38 = getelementptr inbounds %struct._zval_struct, ptr %37, i32 0, i32 1
  %39 = load i8, ptr %38, align 8
  %40 = zext i8 %39 to i32
  %41 = icmp ne i32 %40, 1
  br i1 %41, label %42, label %104

42:                                               ; preds = %3
  %43 = load ptr, ptr %11, align 8
  %44 = getelementptr inbounds %struct._zval_struct, ptr %43, i32 0, i32 0
  %45 = load ptr, ptr %44, align 8
  store ptr %45, ptr %12, align 8
  br label %46

46:                                               ; preds = %42
  store ptr %13, ptr %14, align 8
  %47 = load ptr, ptr %12, align 8
  %48 = getelementptr inbounds %struct._spl_SplObjectStorageElement, ptr %47, i32 0, i32 1
  store ptr %48, ptr %15, align 8
  %49 = load ptr, ptr %15, align 8
  %50 = getelementptr inbounds %struct._zval_struct, ptr %49, i32 0, i32 0
  %51 = load ptr, ptr %50, align 8
  store ptr %51, ptr %16, align 8
  %52 = load ptr, ptr %15, align 8
  %53 = getelementptr inbounds %struct._zval_struct, ptr %52, i32 0, i32 1
  %54 = load i32, ptr %53, align 8
  store i32 %54, ptr %17, align 4
  br label %55

55:                                               ; preds = %46
  %56 = load ptr, ptr %16, align 8
  %57 = load ptr, ptr %14, align 8
  %58 = getelementptr inbounds %struct._zval_struct, ptr %57, i32 0, i32 0
  store ptr %56, ptr %58, align 8
  %59 = load i32, ptr %17, align 4
  %60 = load ptr, ptr %14, align 8
  %61 = getelementptr inbounds %struct._zval_struct, ptr %60, i32 0, i32 1
  store i32 %59, ptr %61, align 8
  br label %62

62:                                               ; preds = %55
  br label %63

63:                                               ; preds = %62
  %64 = load ptr, ptr %9, align 8
  %65 = icmp ne ptr %64, null
  br i1 %65, label %66, label %96

66:                                               ; preds = %63
  br label %67

67:                                               ; preds = %66
  %68 = load ptr, ptr %12, align 8
  %69 = getelementptr inbounds %struct._spl_SplObjectStorageElement, ptr %68, i32 0, i32 1
  store ptr %69, ptr %18, align 8
  %70 = load ptr, ptr %9, align 8
  store ptr %70, ptr %19, align 8
  %71 = load ptr, ptr %19, align 8
  %72 = getelementptr inbounds %struct._zval_struct, ptr %71, i32 0, i32 0
  %73 = load ptr, ptr %72, align 8
  store ptr %73, ptr %20, align 8
  %74 = load ptr, ptr %19, align 8
  %75 = getelementptr inbounds %struct._zval_struct, ptr %74, i32 0, i32 1
  %76 = load i32, ptr %75, align 8
  store i32 %76, ptr %21, align 4
  br label %77

77:                                               ; preds = %67
  %78 = load ptr, ptr %20, align 8
  %79 = load ptr, ptr %18, align 8
  %80 = getelementptr inbounds %struct._zval_struct, ptr %79, i32 0, i32 0
  store ptr %78, ptr %80, align 8
  %81 = load i32, ptr %21, align 4
  %82 = load ptr, ptr %18, align 8
  %83 = getelementptr inbounds %struct._zval_struct, ptr %82, i32 0, i32 1
  store i32 %81, ptr %83, align 8
  br label %84

84:                                               ; preds = %77
  %85 = load i32, ptr %21, align 4
  %86 = and i32 %85, 65280
  %87 = icmp ne i32 %86, 0
  br i1 %87, label %88, label %94

88:                                               ; preds = %84
  %89 = load ptr, ptr %20, align 8
  %90 = getelementptr inbounds %struct._zend_refcounted, ptr %89, i32 0, i32 0
  store ptr %90, ptr %4, align 8
  %91 = load ptr, ptr %4, align 8
  %92 = load i32, ptr %91, align 4
  %93 = add i32 %92, 1
  store i32 %93, ptr %91, align 4
  br label %94

94:                                               ; preds = %88, %84
  br label %95

95:                                               ; preds = %94
  br label %102

96:                                               ; preds = %63
  br label %97

97:                                               ; preds = %96
  %98 = load ptr, ptr %12, align 8
  %99 = getelementptr inbounds %struct._spl_SplObjectStorageElement, ptr %98, i32 0, i32 1
  %100 = getelementptr inbounds %struct._zval_struct, ptr %99, i32 0, i32 1
  store i32 1, ptr %100, align 8
  br label %101

101:                                              ; preds = %97
  br label %102

102:                                              ; preds = %101, %95
  call void @zval_ptr_dtor(ptr noundef %13)
  %103 = load ptr, ptr %12, align 8
  store ptr %103, ptr %6, align 8
  br label %116

104:                                              ; preds = %3
  %105 = load ptr, ptr %8, align 8
  %106 = load ptr, ptr %9, align 8
  %107 = call ptr @spl_object_storage_create_element(ptr noundef %105, ptr noundef %106)
  store ptr %107, ptr %12, align 8
  br label %108

108:                                              ; preds = %104
  %109 = load ptr, ptr %12, align 8
  %110 = load ptr, ptr %11, align 8
  %111 = getelementptr inbounds %struct._zval_struct, ptr %110, i32 0, i32 0
  store ptr %109, ptr %111, align 8
  %112 = load ptr, ptr %11, align 8
  %113 = getelementptr inbounds %struct._zval_struct, ptr %112, i32 0, i32 1
  store i32 13, ptr %113, align 8
  br label %114

114:                                              ; preds = %108
  %115 = load ptr, ptr %12, align 8
  store ptr %115, ptr %6, align 8
  br label %116

116:                                              ; preds = %114, %102
  %117 = load ptr, ptr %6, align 8
  ret ptr %117
}