; Function Attrs: nounwind uwtable
define internal fastcc ptr @spl_object_storage_attach_handle(ptr noundef %0, ptr noundef %1, ptr noundef readonly %2) unnamed_addr #0 {
  %4 = alloca %struct._zval_struct, align 8
  %5 = getelementptr inbounds i8, ptr %1, i64 8
  %6 = load i32, ptr %5, align 8
  %7 = zext i32 %6 to i64
  %8 = tail call ptr @zend_hash_index_lookup(ptr noundef %0, i64 noundef %7) #10
  %9 = getelementptr inbounds i8, ptr %0, i64 72
  %10 = load i64, ptr %9, align 8
  %11 = and i64 %10, 2
  %.not = icmp eq i64 %11, 0
  tail call void @llvm.assume(i1 %.not)
  %12 = getelementptr inbounds i8, ptr %8, i64 8
  %13 = load i8, ptr %12, align 8
  %.not35 = icmp eq i8 %13, 1
  br i1 %.not35, label %31, label %14

14:                                               ; preds = %3
  %15 = load ptr, ptr %8, align 8
  %16 = getelementptr inbounds i8, ptr %15, i64 8
  %17 = load ptr, ptr %16, align 8
  %18 = getelementptr inbounds i8, ptr %15, i64 16
  %19 = load i32, ptr %18, align 8
  store ptr %17, ptr %4, align 8
  %20 = getelementptr inbounds i8, ptr %4, i64 8
  store i32 %19, ptr %20, align 8
  %.not36 = icmp eq ptr %2, null
  br i1 %.not36, label %29, label %21

21:                                               ; preds = %14
  %22 = load ptr, ptr %2, align 8
  %23 = getelementptr inbounds i8, ptr %2, i64 8
  %24 = load i32, ptr %23, align 8
  store ptr %22, ptr %16, align 8
  store i32 %24, ptr %18, align 8
  %25 = and i32 %24, 65280
  %.not37 = icmp eq i32 %25, 0
  br i1 %.not37, label %30, label %26

26:                                               ; preds = %21
  %27 = load i32, ptr %22, align 4
  %28 = add i32 %27, 1
  store i32 %28, ptr %22, align 4
  br label %30

29:                                               ; preds = %14
  store i32 1, ptr %18, align 8
  br label %30

30:                                               ; preds = %26, %21, %29
  call void @zval_ptr_dtor(ptr noundef nonnull %4) #10
  br label %47

31:                                               ; preds = %3
  %32 = tail call noalias ptr @_emalloc_24() #10
  store ptr %1, ptr %32, align 8
  %33 = load i32, ptr %1, align 4
  %34 = add i32 %33, 1
  store i32 %34, ptr %1, align 4
  %.not.i = icmp eq ptr %2, null
  br i1 %.not.i, label %45, label %35

35:                                               ; preds = %31
  %36 = getelementptr inbounds i8, ptr %32, i64 8
  %37 = load ptr, ptr %2, align 8
  %38 = getelementptr inbounds i8, ptr %2, i64 8
  %39 = load i32, ptr %38, align 8
  store ptr %37, ptr %36, align 8
  %40 = getelementptr inbounds i8, ptr %32, i64 16
  store i32 %39, ptr %40, align 8
  %41 = and i32 %39, 65280
  %.not17.i = icmp eq i32 %41, 0
  br i1 %.not17.i, label %spl_object_storage_create_element.exit, label %42

42:                                               ; preds = %35
  %43 = load i32, ptr %37, align 4
  %44 = add i32 %43, 1
  store i32 %44, ptr %37, align 4
  br label %spl_object_storage_create_element.exit

45:                                               ; preds = %31
  %46 = getelementptr inbounds i8, ptr %32, i64 16
  store i32 1, ptr %46, align 8
  br label %spl_object_storage_create_element.exit

spl_object_storage_create_element.exit:           ; preds = %35, %42, %45
  store ptr %32, ptr %8, align 8
  store i32 13, ptr %12, align 8
  br label %47

47:                                               ; preds = %spl_object_storage_create_element.exit, %30
  %.0 = phi ptr [ %15, %30 ], [ %32, %spl_object_storage_create_element.exit ]
  ret ptr %.0
}